target datalayout = "e-m:e-p270:32:32-p271:32:32-p272:64:64-i64:64-i128:128-f80:128-n8:16:32:64-S128"
target triple = "x86_64-pc-linux-gnu"

%struct.Npn_Man_t_ = type { ptr, ptr, i32, i32, i32 }
%struct.Npn_Obj_t_ = type { i64, i32, i32 }
%struct.timespec = type { i64, i64 }

; Function Attrs: nounwind uwtable
define internal i32 @Npn_ManObjNum(ptr noundef %0, ptr noundef %1) #0 {
  %3 = alloca ptr, align 8
  %4 = alloca ptr, align 8
  store ptr %0, ptr %3, align 8
  store ptr %1, ptr %4, align 8
  %5 = load ptr, ptr %4, align 8
  %6 = load ptr, ptr %3, align 8
  %7 = getelementptr inbounds %struct.Npn_Man_t_, ptr %6, i32 0, i32 0
  %8 = load ptr, ptr %7, align 8
  %9 = ptrtoint ptr %5 to i64
  %10 = ptrtoint ptr %8 to i64
  %11 = sub i64 %9, %10
  %12 = sdiv exact i64 %11, 16
  %13 = trunc i64 %12 to i32
  ret i32 %13
}

; Function Attrs: nounwind uwtable
define internal i32 @Npn_ManHash(ptr noundef %0, i64 noundef %1) #0 {
  %3 = alloca ptr, align 8
  %4 = alloca i64, align 8
  %5 = alloca i64, align 8
  store ptr %0, ptr %3, align 8
  store i64 %1, ptr %4, align 8
  %6 = load i64, ptr %4, align 8
  %7 = mul i64 %6, 101
  %8 = load i64, ptr %4, align 8
  %9 = mul i64 %8, 733
  %10 = xor i64 %7, %9
  %11 = load i64, ptr %4, align 8
  %12 = mul i64 %11, 1777
  %13 = xor i64 %10, %12
  store i64 %13, ptr %5, align 8
  %14 = load i64, ptr %5, align 8
  %15 = load ptr, ptr %3, align 8
  %16 = getelementptr inbounds %struct.Npn_Man_t_, ptr %15, i32 0, i32 2
  %17 = load i32, ptr %16, align 8
  %18 = sext i32 %17 to i64
  %19 = urem i64 %14, %18
  %20 = trunc i64 %19 to i32
  ret i32 %20
}

; Function Attrs: nounwind uwtable
define internal ptr @Npn_ManObj(ptr noundef %0, i32 noundef %1) #0 {
  %3 = alloca ptr, align 8
  %4 = alloca i32, align 4
  store ptr %0, ptr %3, align 8
  store i32 %1, ptr %4, align 4
  %5 = load i32, ptr %4, align 4
  %6 = icmp ne i32 %5, 0
  br i1 %6, label %7, label %14

7:                                                ; preds = %2
  %8 = load ptr, ptr %3, align 8
  %9 = getelementptr inbounds %struct.Npn_Man_t_, ptr %8, i32 0, i32 0
  %10 = load ptr, ptr %9, align 8
  %11 = load i32, ptr %4, align 4
  %12 = sext i32 %11 to i64
  %13 = getelementptr inbounds %struct.Npn_Obj_t_, ptr %10, i64 %12
  br label %15

14:                                               ; preds = %2
  br label %15

15:                                               ; preds = %14, %7
  %16 = phi ptr [ %13, %7 ], [ null, %14 ]
  ret ptr %16
}

; Function Attrs: nounwind uwtable
define internal i32 @Abc_PrimeCudd(i32 noundef %0) #0 {
  %2 = alloca i32, align 4
  %3 = alloca i32, align 4
  %4 = alloca i32, align 4
  store i32 %0, ptr %2, align 4
  %5 = load i32, ptr %2, align 4
  %6 = add i32 %5, -1
  store i32 %6, ptr %2, align 4
  br label %7

7:                                                ; preds = %32, %1
  %8 = load i32, ptr %2, align 4
  %9 = add i32 %8, 1
  store i32 %9, ptr %2, align 4
  %10 = load i32, ptr %2, align 4
  %11 = and i32 %10, 1
  %12 = icmp ne i32 %11, 0
  br i1 %12, label %13, label %30

13:                                               ; preds = %7
  store i32 1, ptr %4, align 4
  store i32 3, ptr %3, align 4
  br label %14

14:                                               ; preds = %26, %13
  %15 = load i32, ptr %3, align 4
  %16 = load i32, ptr %3, align 4
  %17 = mul nsw i32 %15, %16
  %18 = load i32, ptr %2, align 4
  %19 = icmp ule i32 %17, %18
  br i1 %19, label %20, label %29

20:                                               ; preds = %14
  %21 = load i32, ptr %2, align 4
  %22 = load i32, ptr %3, align 4
  %23 = urem i32 %21, %22
  %24 = icmp eq i32 %23, 0
  br i1 %24, label %25, label %26

25:                                               ; preds = %20
  store i32 0, ptr %4, align 4
  br label %29

26:                                               ; preds = %20
  %27 = load i32, ptr %3, align 4
  %28 = add nsw i32 %27, 2
  store i32 %28, ptr %3, align 4
  br label %14, !llvm.loop !8

29:                                               ; preds = %25, %14
  br label %31

30:                                               ; preds = %7
  store i32 0, ptr %4, align 4
  br label %31

31:                                               ; preds = %30, %29
  br label %32

32:                                               ; preds = %31
  %33 = load i32, ptr %4, align 4
  %34 = icmp ne i32 %33, 0
  %35 = xor i1 %34, true
  br i1 %35, label %7, label %36, !llvm.loop !9

36:                                               ; preds = %32
  %37 = load i32, ptr %2, align 4
  ret i32 %37
}

; Function Attrs: nounwind uwtable
define internal i64 @Abc_Clock() #0 {
  %1 = alloca i64, align 8
  %2 = alloca %struct.timespec, align 8
  %3 = alloca i64, align 8
  %4 = call i32 @clock_gettime(i32 noundef 1, ptr noundef %2) #8
  %5 = icmp slt i32 %4, 0
  br i1 %5, label %6, label %7

6:                                                ; preds = %0
  store i64 -1, ptr %1, align 8
  br label %18

7:                                                ; preds = %0
  %8 = getelementptr inbounds %struct.timespec, ptr %2, i32 0, i32 0
  %9 = load i64, ptr %8, align 8
  %10 = mul nsw i64 %9, 1000000
  store i64 %10, ptr %3, align 8
  %11 = getelementptr inbounds %struct.timespec, ptr %2, i32 0, i32 1
  %12 = load i64, ptr %11, align 8
  %13 = mul nsw i64 %12, 1000000
  %14 = sdiv i64 %13, 1000000000
  %15 = load i64, ptr %3, align 8
  %16 = add nsw i64 %15, %14
  store i64 %16, ptr %3, align 8
  %17 = load i64, ptr %3, align 8
  store i64 %17, ptr %1, align 8
  br label %18

18:                                               ; preds = %7, %6
  %19 = load i64, ptr %1, align 8
  ret i64 %19
}

; Function Attrs: nounwind uwtable
define void @Npn_ManResize(ptr noundef %0) #0 {
  %2 = alloca ptr, align 8
  %3 = alloca ptr, align 8
  %4 = alloca ptr, align 8
  %5 = alloca ptr, align 8
  %6 = alloca ptr, align 8
  %7 = alloca i32, align 4
  %8 = alloca i32, align 4
  %9 = alloca i32, align 4
  %10 = alloca i64, align 8
  store ptr %0, ptr %2, align 8
  %11 = call i64 @Abc_Clock()
  store i64 %11, ptr %10, align 8
  %12 = load ptr, ptr %2, align 8
  %13 = getelementptr inbounds %struct.Npn_Man_t_, ptr %12, i32 0, i32 1
  %14 = load ptr, ptr %13, align 8
  store ptr %14, ptr %5, align 8
  %15 = load ptr, ptr %2, align 8
  %16 = getelementptr inbounds %struct.Npn_Man_t_, ptr %15, i32 0, i32 2
  %17 = load i32, ptr %16, align 8
  store i32 %17, ptr %7, align 4
  %18 = load i32, ptr %7, align 4
  %19 = mul nsw i32 3, %18
  %20 = call i32 @Abc_PrimeCudd(i32 noundef %19)
  %21 = load ptr, ptr %2, align 8
  %22 = getelementptr inbounds %struct.Npn_Man_t_, ptr %21, i32 0, i32 2
  store i32 %20, ptr %22, align 8
  %23 = load ptr, ptr %2, align 8
  %24 = getelementptr inbounds %struct.Npn_Man_t_, ptr %23, i32 0, i32 2
  %25 = load i32, ptr %24, align 8
  %26 = sext i32 %25 to i64
  %27 = call noalias ptr @calloc(i64 noundef %26, i64 noundef 4) #11
  %28 = load ptr, ptr %2, align 8
  %29 = getelementptr inbounds %struct.Npn_Man_t_, ptr %28, i32 0, i32 1
  store ptr %27, ptr %29, align 8
  store i32 1, ptr %8, align 4
  store i32 0, ptr %9, align 4
  br label %30

30:                                               ; preds = %91, %1
  %31 = load i32, ptr %9, align 4
  %32 = load i32, ptr %7, align 4
  %33 = icmp slt i32 %31, %32
  br i1 %33, label %34, label %94

34:                                               ; preds = %30
  %35 = load ptr, ptr %2, align 8
  %36 = load ptr, ptr %5, align 8
  %37 = load i32, ptr %9, align 4
  %38 = sext i32 %37 to i64
  %39 = getelementptr inbounds i32, ptr %36, i64 %38
  %40 = load i32, ptr %39, align 4
  %41 = call ptr @Npn_ManObj(ptr noundef %35, i32 noundef %40)
  store ptr %41, ptr %3, align 8
  %42 = load ptr, ptr %3, align 8
  %43 = icmp ne ptr %42, null
  br i1 %43, label %44, label %50

44:                                               ; preds = %34
  %45 = load ptr, ptr %2, align 8
  %46 = load ptr, ptr %3, align 8
  %47 = getelementptr inbounds %struct.Npn_Obj_t_, ptr %46, i32 0, i32 2
  %48 = load i32, ptr %47, align 4
  %49 = call ptr @Npn_ManObj(ptr noundef %45, i32 noundef %48)
  br label %51

50:                                               ; preds = %34
  br label %51

51:                                               ; preds = %50, %44
  %52 = phi ptr [ %49, %44 ], [ null, %50 ]
  store ptr %52, ptr %4, align 8
  br label %53

53:                                               ; preds = %88, %51
  %54 = load ptr, ptr %3, align 8
  %55 = icmp ne ptr %54, null
  br i1 %55, label %56, label %90

56:                                               ; preds = %53
  %57 = load ptr, ptr %2, align 8
  %58 = getelementptr inbounds %struct.Npn_Man_t_, ptr %57, i32 0, i32 1
  %59 = load ptr, ptr %58, align 8
  %60 = load ptr, ptr %2, align 8
  %61 = load ptr, ptr %3, align 8
  %62 = getelementptr inbounds %struct.Npn_Obj_t_, ptr %61, i32 0, i32 0
  %63 = load i64, ptr %62, align 8
  %64 = call i32 @Npn_ManHash(ptr noundef %60, i64 noundef %63)
  %65 = sext i32 %64 to i64
  %66 = getelementptr inbounds i32, ptr %59, i64 %65
  store ptr %66, ptr %6, align 8
  %67 = load ptr, ptr %6, align 8
  %68 = load i32, ptr %67, align 4
  %69 = load ptr, ptr %3, align 8
  %70 = getelementptr inbounds %struct.Npn_Obj_t_, ptr %69, i32 0, i32 2
  store i32 %68, ptr %70, align 4
  %71 = load ptr, ptr %2, align 8
  %72 = load ptr, ptr %3, align 8
  %73 = call i32 @Npn_ManObjNum(ptr noundef %71, ptr noundef %72)
  %74 = load ptr, ptr %6, align 8
  store i32 %73, ptr %74, align 4
  %75 = load i32, ptr %8, align 4
  %76 = add nsw i32 %75, 1
  store i32 %76, ptr %8, align 4
  br label %77

77:                                               ; preds = %56
  %78 = load ptr, ptr %4, align 8
  store ptr %78, ptr %3, align 8
  %79 = load ptr, ptr %3, align 8
  %80 = icmp ne ptr %79, null
  br i1 %80, label %81, label %87

81:                                               ; preds = %77
  %82 = load ptr, ptr %2, align 8
  %83 = load ptr, ptr %3, align 8
  %84 = getelementptr inbounds %struct.Npn_Obj_t_, ptr %83, i32 0, i32 2
  %85 = load i32, ptr %84, align 4
  %86 = call ptr @Npn_ManObj(ptr noundef %82, i32 noundef %85)
  br label %88

87:                                               ; preds = %77
  br label %88

88:                                               ; preds = %87, %81
  %89 = phi ptr [ %86, %81 ], [ null, %87 ]
  store ptr %89, ptr %4, align 8
  br label %53, !llvm.loop !6

90:                                               ; preds = %53
  br label %91

91:                                               ; preds = %90
  %92 = load i32, ptr %9, align 4
  %93 = add nsw i32 %92, 1
  store i32 %93, ptr %9, align 4
  br label %30, !llvm.loop !7

94:                                               ; preds = %30
  %95 = load ptr, ptr %5, align 8
  %96 = icmp ne ptr %95, null
  br i1 %96, label %97, label %99

97:                                               ; preds = %94
  %98 = load ptr, ptr %5, align 8
  call void @free(ptr noundef %98) #8
  store ptr null, ptr %5, align 8
  br label %100

99:                                               ; preds = %94
  br label %100

100:                                              ; preds = %99, %97
  ret void
}