; Function Attrs: nounwind uwtable
define void @Npn_ManResize(ptr noundef captures(none) %0) local_unnamed_addr #0 {
Abc_Clock.exit:
  %1 = alloca %struct.timespec, align 8
  call void @llvm.lifetime.start.p0(i64 16, ptr nonnull %1)
  %2 = call i32 @clock_gettime(i32 noundef 1, ptr noundef nonnull %1) #22
  call void @llvm.lifetime.end.p0(i64 16, ptr nonnull %1)
  %3 = getelementptr inbounds nuw i8, ptr %0, i64 8
  %4 = load ptr, ptr %3, align 8
  %5 = getelementptr inbounds nuw i8, ptr %0, i64 16
  %6 = load i32, ptr %5, align 8
  %7 = mul nsw i32 %6, 3
  %8 = add i32 %7, -1
  br label %.loopexit.i

.loopexit.i:                                      ; preds = %.loopexit.i.backedge, %Abc_Clock.exit
  %.012.i = phi i32 [ %8, %Abc_Clock.exit ], [ %9, %.loopexit.i.backedge ]
  %9 = add i32 %.012.i, 1
  %10 = and i32 %.012.i, 1
  %.not.not.i = icmp eq i32 %10, 0
  br i1 %.not.not.i, label %.preheader.i, label %.loopexit.i.backedge

.loopexit.i.backedge:                             ; preds = %.lr.ph.i, %.loopexit.i
  br label %.loopexit.i, !llvm.loop !6

.preheader.i:                                     ; preds = %.loopexit.i
  %.not15.i = icmp ult i32 %9, 9
  br i1 %.not15.i, label %Abc_PrimeCudd.exit, label %.lr.ph.i

11:                                               ; preds = %.lr.ph.i
  %12 = add nuw nsw i32 %.01116.i, 2
  %13 = mul nuw nsw i32 %12, %12
  %.not.i = icmp ugt i32 %13, %9
  br i1 %.not.i, label %Abc_PrimeCudd.exit, label %.lr.ph.i, !llvm.loop !7

.lr.ph.i:                                         ; preds = %.preheader.i, %11
  %.01116.i = phi i32 [ %12, %11 ], [ 3, %.preheader.i ]
  %14 = urem i32 %9, %.01116.i
  %15 = icmp eq i32 %14, 0
  br i1 %15, label %.loopexit.i.backedge, label %11, !llvm.loop !6

Abc_PrimeCudd.exit:                               ; preds = %.preheader.i, %11
  store i32 %9, ptr %5, align 8
  %16 = sext i32 %9 to i64
  %17 = call noalias ptr @calloc(i64 noundef %16, i64 noundef 4) #23
  store ptr %17, ptr %3, align 8
  %18 = icmp sgt i32 %6, 0
  br i1 %18, label %.lr.ph53.preheader, label %._crit_edge54

.lr.ph53.preheader:                               ; preds = %Abc_PrimeCudd.exit
  %wide.trip.count = zext nneg i32 %6 to i64
  br label %.lr.ph53

.lr.ph53:                                         ; preds = %.lr.ph53.preheader, %._crit_edge
  %indvars.iv = phi i64 [ 0, %.lr.ph53.preheader ], [ %indvars.iv.next, %._crit_edge ]
  %19 = getelementptr inbounds nuw i32, ptr %4, i64 %indvars.iv
  %20 = load i32, ptr %19, align 4
  %.not.i39 = icmp eq i32 %20, 0
  br i1 %.not.i39, label %._crit_edge, label %Npn_ManObj.exit

Npn_ManObj.exit:                                  ; preds = %.lr.ph53
  %21 = load ptr, ptr %0, align 8
  %22 = sext i32 %20 to i64
  %23 = getelementptr inbounds %struct.Npn_Obj_t_, ptr %21, i64 %22
  %24 = getelementptr inbounds nuw i8, ptr %23, i64 12
  %25 = load i32, ptr %24, align 4
  %.not.i40 = icmp eq i32 %25, 0
  %26 = sext i32 %25 to i64
  %27 = getelementptr inbounds %struct.Npn_Obj_t_, ptr %21, i64 %26
  %.ph = select i1 %.not.i40, ptr null, ptr %27
  br label %.lr.ph

.lr.ph:                                           ; preds = %.lr.ph.backedge, %Npn_ManObj.exit
  %.050 = phi ptr [ %23, %Npn_ManObj.exit ], [ %.03248, %.lr.ph.backedge ]
  %.03248 = phi ptr [ %.ph, %Npn_ManObj.exit ], [ %.03248.be, %.lr.ph.backedge ]
  %28 = load ptr, ptr %3, align 8
  %29 = load i64, ptr %.050, align 8
  %.val = load i32, ptr %5, align 8
  %30 = mul i64 %29, 101
  %31 = mul i64 %29, 733
  %32 = xor i64 %30, %31
  %33 = mul i64 %29, 1777
  %34 = xor i64 %32, %33
  %35 = sext i32 %.val to i64
  %36 = urem i64 %34, %35
  %sext = shl i64 %36, 32
  %37 = ashr exact i64 %sext, 30
  %38 = getelementptr inbounds i8, ptr %28, i64 %37
  %39 = load i32, ptr %38, align 4
  %40 = getelementptr inbounds nuw i8, ptr %.050, i64 12
  store i32 %39, ptr %40, align 4
  %.val38 = load ptr, ptr %0, align 8
  %41 = ptrtoint ptr %.050 to i64
  %42 = ptrtoint ptr %.val38 to i64
  %43 = sub i64 %41, %42
  %44 = lshr exact i64 %43, 4
  %45 = trunc i64 %44 to i32
  store i32 %45, ptr %38, align 4
  %.not37 = icmp eq ptr %.03248, null
  br i1 %.not37, label %._crit_edge, label %46

46:                                               ; preds = %.lr.ph
  %47 = getelementptr inbounds nuw i8, ptr %.03248, i64 12
  %48 = load i32, ptr %47, align 4
  %.not.i42 = icmp eq i32 %48, 0
  br i1 %.not.i42, label %.lr.ph.backedge, label %49

49:                                               ; preds = %46
  %50 = load ptr, ptr %0, align 8
  %51 = sext i32 %48 to i64
  %52 = getelementptr inbounds %struct.Npn_Obj_t_, ptr %50, i64 %51
  br label %.lr.ph.backedge

.lr.ph.backedge:                                  ; preds = %49, %46
  %.03248.be = phi ptr [ %52, %49 ], [ null, %46 ]
  br label %.lr.ph, !llvm.loop !8

._crit_edge:                                      ; preds = %.lr.ph, %.lr.ph53
  %indvars.iv.next = add nuw nsw i64 %indvars.iv, 1
  %exitcond.not = icmp eq i64 %indvars.iv.next, %wide.trip.count
  br i1 %exitcond.not, label %._crit_edge54, label %.lr.ph53, !llvm.loop !9

._crit_edge54:                                    ; preds = %._crit_edge, %Abc_PrimeCudd.exit
  %.not = icmp eq ptr %4, null
  br i1 %.not, label %54, label %53

53:                                               ; preds = %._crit_edge54
  call void @free(ptr noundef nonnull %4) #22
  br label %54

54:                                               ; preds = %._crit_edge54, %53
  ret void
}